; Function Attrs: nofree norecurse nosync nounwind memory(read, inaccessiblemem: none) uwtable
define hidden i64 @get_lib_base(ptr nocapture noundef readonly %0, i32 noundef %1) local_unnamed_addr #15 {
  %3 = getelementptr inbounds i8, ptr %0, i64 16
  %.010 = load ptr, ptr %3, align 8
  %.not11 = icmp eq ptr %.010, null
  br i1 %.not11, label %.loopexit, label %.lr.ph

.lr.ph:                                           ; preds = %2, %8
  %.013 = phi ptr [ %.0, %8 ], [ %.010, %2 ]
  %.0712 = phi i32 [ %9, %8 ], [ 0, %2 ]
  %4 = icmp eq i32 %.0712, %1
  br i1 %4, label %5, label %8

5:                                                ; preds = %.lr.ph
  %6 = getelementptr inbounds i8, ptr %.013, i64 4352
  %7 = load i64, ptr %6, align 8
  br label %.loopexit

8:                                                ; preds = %.lr.ph
  %9 = add nuw nsw i32 %.0712, 1
  %10 = getelementptr inbounds i8, ptr %.013, i64 4432
  %.0 = load ptr, ptr %10, align 8
  %.not = icmp eq ptr %.0, null
  br i1 %.not, label %.loopexit, label %.lr.ph, !llvm.loop !16

.loopexit:                                        ; preds = %8, %2, %5
  %.08 = phi i64 [ %7, %5 ], [ 0, %2 ], [ 0, %8 ]
  ret i64 %.08
}